; Function Attrs: mustprogress uwtable
define void @_ZNK18llama_model_loader10print_infoEv(ptr noundef nonnull readonly align 8 captures(none) dereferenceable(320) %0) local_unnamed_addr #1 align 2 personality ptr @__gxx_personality_v0 {
  %2 = alloca %"class.std::__cxx11::basic_string", align 8
  %3 = getelementptr inbounds nuw i8, ptr %0, i64 68
  %4 = load i32, ptr %3, align 4, !tbaa !156
  %switch.tableidx = add i32 %4, -1
  %5 = icmp ult i32 %switch.tableidx, 3
  br i1 %5, label %switch.lookup, label %_Z23llama_file_version_name10llama_fver.exit

switch.lookup:                                    ; preds = %1
  %6 = zext nneg i32 %switch.tableidx to i64
  %switch.gep = getelementptr inbounds nuw [3 x ptr], ptr @switch.table._ZNK18llama_model_loader10print_infoEv, i64 0, i64 %6
  %switch.load = load ptr, ptr %switch.gep, align 8
  br label %_Z23llama_file_version_name10llama_fver.exit

_Z23llama_file_version_name10llama_fver.exit:     ; preds = %1, %switch.lookup
  %.0.i = phi ptr [ %switch.load, %switch.lookup ], [ @.str.3, %1 ]
  tail call void (i32, ptr, ...) @_Z18llama_log_internal14ggml_log_levelPKcz(i32 noundef 2, ptr noundef nonnull @.str.44, ptr noundef nonnull @__func__._ZNK18llama_model_loader10print_infoEv, ptr noundef nonnull %.0.i)
  call void @llvm.lifetime.start.p0(i64 32, ptr nonnull %2) #32
  %7 = getelementptr inbounds nuw i8, ptr %0, i64 64
  %8 = load i32, ptr %7, align 8, !tbaa !167
  call fastcc void @_ZL22llama_model_ftype_nameB5cxx1111llama_ftype(ptr dead_on_unwind noalias nonnull writable align 8 %2, i32 noundef %8)
  %9 = load ptr, ptr %2, align 8, !tbaa !3
  invoke void (i32, ptr, ...) @_Z18llama_log_internal14ggml_log_levelPKcz(i32 noundef 2, ptr noundef nonnull @.str.45, ptr noundef nonnull @__func__._ZNK18llama_model_loader10print_infoEv, ptr noundef %9)
          to label %10 unwind label %31

10:                                               ; preds = %_Z23llama_file_version_name10llama_fver.exit
  %11 = load ptr, ptr %2, align 8, !tbaa !3
  %12 = getelementptr inbounds nuw i8, ptr %2, i64 16
  %13 = icmp eq ptr %11, %12
  br i1 %13, label %_ZNKSt7__cxx1112basic_stringIcSt11char_traitsIcESaIcEE11_M_is_localEv.exit.thread.i.i, label %_ZNKSt7__cxx1112basic_stringIcSt11char_traitsIcESaIcEE11_M_is_localEv.exit.i.i

_ZNKSt7__cxx1112basic_stringIcSt11char_traitsIcESaIcEE11_M_is_localEv.exit.thread.i.i: ; preds = %10
  %14 = getelementptr inbounds nuw i8, ptr %2, i64 8
  %15 = load i64, ptr %14, align 8, !tbaa !11
  %16 = icmp ult i64 %15, 16
  call void @llvm.assume(i1 %16)
  br label %_ZNSt7__cxx1112basic_stringIcSt11char_traitsIcESaIcEED2Ev.exit

_ZNKSt7__cxx1112basic_stringIcSt11char_traitsIcESaIcEE11_M_is_localEv.exit.i.i: ; preds = %10
  %17 = load i64, ptr %12, align 8, !tbaa !12
  %18 = add i64 %17, 1
  call void @_ZdlPvm(ptr noundef %11, i64 noundef %18) #33
  br label %_ZNSt7__cxx1112basic_stringIcSt11char_traitsIcESaIcEED2Ev.exit

_ZNSt7__cxx1112basic_stringIcSt11char_traitsIcESaIcEED2Ev.exit: ; preds = %_ZNKSt7__cxx1112basic_stringIcSt11char_traitsIcESaIcEE11_M_is_localEv.exit.thread.i.i, %_ZNKSt7__cxx1112basic_stringIcSt11char_traitsIcESaIcEE11_M_is_localEv.exit.i.i
  call void @llvm.lifetime.end.p0(i64 32, ptr nonnull %2) #32
  %19 = getelementptr inbounds nuw i8, ptr %0, i64 24
  %20 = load i64, ptr %19, align 8, !tbaa !121
  %21 = icmp ult i64 %20, 1073741824
  %22 = uitofp i64 %20 to double
  %23 = fmul double %22, 0x3F50000000000000
  %24 = fmul double %23, 0x3F50000000000000
  br i1 %21, label %25, label %41

25:                                               ; preds = %_ZNSt7__cxx1112basic_stringIcSt11char_traitsIcESaIcEED2Ev.exit
  %26 = fmul double %22, 8.000000e+00
  %27 = getelementptr inbounds nuw i8, ptr %0, i64 16
  %28 = load i64, ptr %27, align 8, !tbaa !120
  %29 = uitofp i64 %28 to double
  %30 = fdiv double %26, %29
  call void (i32, ptr, ...) @_Z18llama_log_internal14ggml_log_levelPKcz(i32 noundef 2, ptr noundef nonnull @.str.46, ptr noundef nonnull @__func__._ZNK18llama_model_loader10print_infoEv, double noundef %24, double noundef %30)
  br label %48

31:                                               ; preds = %_Z23llama_file_version_name10llama_fver.exit
  %32 = landingpad { ptr, i32 }
          cleanup
  %33 = load ptr, ptr %2, align 8, !tbaa !3
  %34 = getelementptr inbounds nuw i8, ptr %2, i64 16
  %35 = icmp eq ptr %33, %34
  br i1 %35, label %_ZNKSt7__cxx1112basic_stringIcSt11char_traitsIcESaIcEE11_M_is_localEv.exit.thread.i.i3, label %_ZNKSt7__cxx1112basic_stringIcSt11char_traitsIcESaIcEE11_M_is_localEv.exit.i.i2

_ZNKSt7__cxx1112basic_stringIcSt11char_traitsIcESaIcEE11_M_is_localEv.exit.thread.i.i3: ; preds = %31
  %36 = getelementptr inbounds nuw i8, ptr %2, i64 8
  %37 = load i64, ptr %36, align 8, !tbaa !11
  %38 = icmp ult i64 %37, 16
  call void @llvm.assume(i1 %38)
  br label %_ZNSt7__cxx1112basic_stringIcSt11char_traitsIcESaIcEED2Ev.exit4

_ZNKSt7__cxx1112basic_stringIcSt11char_traitsIcESaIcEE11_M_is_localEv.exit.i.i2: ; preds = %31
  %39 = load i64, ptr %34, align 8, !tbaa !12
  %40 = add i64 %39, 1
  call void @_ZdlPvm(ptr noundef %33, i64 noundef %40) #33
  br label %_ZNSt7__cxx1112basic_stringIcSt11char_traitsIcESaIcEED2Ev.exit4

_ZNSt7__cxx1112basic_stringIcSt11char_traitsIcESaIcEED2Ev.exit4: ; preds = %_ZNKSt7__cxx1112basic_stringIcSt11char_traitsIcESaIcEE11_M_is_localEv.exit.thread.i.i3, %_ZNKSt7__cxx1112basic_stringIcSt11char_traitsIcESaIcEE11_M_is_localEv.exit.i.i2
  call void @llvm.lifetime.end.p0(i64 32, ptr nonnull %2) #32
  resume { ptr, i32 } %32

41:                                               ; preds = %_ZNSt7__cxx1112basic_stringIcSt11char_traitsIcESaIcEED2Ev.exit
  %42 = fmul double %24, 0x3F50000000000000
  %43 = fmul double %22, 8.000000e+00
  %44 = getelementptr inbounds nuw i8, ptr %0, i64 16
  %45 = load i64, ptr %44, align 8, !tbaa !120
  %46 = uitofp i64 %45 to double
  %47 = fdiv double %43, %46
  call void (i32, ptr, ...) @_Z18llama_log_internal14ggml_log_levelPKcz(i32 noundef 2, ptr noundef nonnull @.str.47, ptr noundef nonnull @__func__._ZNK18llama_model_loader10print_infoEv, double noundef %42, double noundef %47)
  br label %48

48:                                               ; preds = %41, %25
  ret void
}